; Function Attrs: mustprogress uwtable
define void @_ZN3nix10SQLiteStmt3UseC2ERS0_(ptr nocapture noundef nonnull writeonly align 8 dereferenceable(12) %0, ptr noundef nonnull align 8 dereferenceable(48) %1) unnamed_addr #2 align 2 {
  store ptr %1, ptr %0, align 8
  %3 = getelementptr inbounds i8, ptr %0, i64 8
  store i32 1, ptr %3, align 8
  %4 = getelementptr inbounds i8, ptr %1, i64 8
  %5 = load ptr, ptr %4, align 8
  %6 = tail call i32 @sqlite3_reset(ptr noundef %5)
  ret void
}